; Function Attrs: nounwind uwtable
define internal i64 @union_hash(ptr noundef readonly captures(none) %0) #0 {
  %2 = getelementptr inbounds nuw i8, ptr %0, i64 16
  %3 = load ptr, ptr %2, align 8, !tbaa !22
  %4 = tail call ptr @PyFrozenSet_New(ptr noundef %3) #5
  %5 = icmp eq ptr %4, null
  br i1 %5, label %Py_DECREF.exit, label %6

6:                                                ; preds = %1
  %7 = tail call i64 @PyObject_Hash(ptr noundef nonnull %4) #5
  %8 = load i32, ptr %4, align 8, !tbaa !27
  %.not.i = icmp sgt i32 %8, -1
  br i1 %.not.i, label %9, label %Py_DECREF.exit

9:                                                ; preds = %6
  %10 = add nsw i32 %8, -1
  store i32 %10, ptr %4, align 8, !tbaa !27
  %11 = icmp eq i32 %10, 0
  br i1 %11, label %12, label %Py_DECREF.exit

12:                                               ; preds = %9
  tail call void @_Py_Dealloc(ptr noundef nonnull %4) #5
  br label %Py_DECREF.exit

Py_DECREF.exit:                                   ; preds = %12, %9, %6, %1
  %.0 = phi i64 [ -1, %1 ], [ %7, %6 ], [ %7, %9 ], [ %7, %12 ]
  ret i64 %.0
}